; Function Attrs: mustprogress uwtable
define void @_ZN8QuantLib28HybridHestonHullWhiteProcess6updateEv(ptr nocapture noundef nonnull align 8 dereferenceable(216) %this) unnamed_addr #6 align 2 {
entry:
  %hestonProcess_ = getelementptr inbounds nuw i8, ptr %this, i64 128
  %0 = load ptr, ptr %hestonProcess_, align 8, !tbaa !39
  %cmp.not.i = icmp eq ptr %0, null
  br i1 %cmp.not.i, label %cond.false.i, label %_ZNK5boost10shared_ptrIN8QuantLib13HestonProcessEEptEv.exit, !prof !43

cond.false.i:                                     ; preds = %entry
  tail call void @_ZN5boost16assertion_failedEPKcS1_S1_l(ptr noundef nonnull @.str.13, ptr noundef nonnull @__PRETTY_FUNCTION__._ZNK5boost10shared_ptrIN8QuantLib13HestonProcessEEptEv, ptr noundef nonnull @.str.14, i64 noundef 784)
  %.pre.i = load ptr, ptr %hestonProcess_, align 8, !tbaa !39
  br label %_ZNK5boost10shared_ptrIN8QuantLib13HestonProcessEEptEv.exit

_ZNK5boost10shared_ptrIN8QuantLib13HestonProcessEEptEv.exit: ; preds = %entry, %cond.false.i
  %1 = phi ptr [ %0, %entry ], [ %.pre.i, %cond.false.i ]
  %call2 = tail call noundef nonnull align 8 dereferenceable(16) ptr @_ZNK8QuantLib13HestonProcess12riskFreeRateEv(ptr noundef nonnull align 8 dereferenceable(220) %1)
  %call3 = tail call noundef nonnull align 8 dereferenceable(16) ptr @_ZNK8QuantLib6HandleINS_18YieldTermStructureEEptEv(ptr noundef nonnull align 8 dereferenceable(16) %call2)
  %2 = load ptr, ptr %call3, align 8, !tbaa !76
  %cmp.not.i1 = icmp eq ptr %2, null
  br i1 %cmp.not.i1, label %cond.false.i2, label %_ZNK5boost10shared_ptrIN8QuantLib18YieldTermStructureEEptEv.exit, !prof !43

cond.false.i2:                                    ; preds = %_ZNK5boost10shared_ptrIN8QuantLib13HestonProcessEEptEv.exit
  tail call void @_ZN5boost16assertion_failedEPKcS1_S1_l(ptr noundef nonnull @.str.13, ptr noundef nonnull @__PRETTY_FUNCTION__._ZNK5boost10shared_ptrIN8QuantLib18YieldTermStructureEEptEv, ptr noundef nonnull @.str.14, i64 noundef 784)
  %.pre.i3 = load ptr, ptr %call3, align 8, !tbaa !76
  br label %_ZNK5boost10shared_ptrIN8QuantLib18YieldTermStructureEEptEv.exit

_ZNK5boost10shared_ptrIN8QuantLib18YieldTermStructureEEptEv.exit: ; preds = %_ZNK5boost10shared_ptrIN8QuantLib13HestonProcessEEptEv.exit, %cond.false.i2
  %3 = phi ptr [ %2, %_ZNK5boost10shared_ptrIN8QuantLib13HestonProcessEEptEv.exit ], [ %.pre.i3, %cond.false.i2 ]
  %T_ = getelementptr inbounds nuw i8, ptr %this, i64 200
  %4 = load double, ptr %T_, align 8, !tbaa !75
  %call5 = tail call noundef double @_ZNK8QuantLib18YieldTermStructure8discountEdb(ptr noundef nonnull align 8 dereferenceable(152) %3, double noundef %4, i1 noundef zeroext false)
  %endDiscount_ = getelementptr inbounds nuw i8, ptr %this, i64 208
  store double %call5, ptr %endDiscount_, align 8, !tbaa !78
  ret void
}